target datalayout = "e-m:e-p270:32:32-p271:32:32-p272:64:64-i64:64-i128:128-f80:128-n8:16:32:64-S128"
target triple = "x86_64-unknown-linux-gnu"

%"class.google::protobuf::internal::SymbolBase" = type { i8 }
%"class.google::protobuf::Reflection" = type { ptr, %"struct.google::protobuf::internal::ReflectionSchema", ptr, ptr, i32, %"class.absl::lts_20230802::once_flag", ptr }
%"struct.google::protobuf::internal::ReflectionSchema" = type { ptr, ptr, ptr, i32, i32, i32, i32, i32, i32, ptr, i32, i32, i32 }
%"class.absl::lts_20230802::once_flag" = type { %"struct.std::atomic.1" }
%"struct.std::atomic.1" = type { %"struct.std::__atomic_base.2" }
%"struct.std::__atomic_base.2" = type { i32 }
%"class.google::protobuf::Descriptor" = type { %"class.google::protobuf::internal::SymbolBase", i8, i16, i32, ptr, ptr, ptr, ptr, ptr, ptr, ptr, ptr, ptr, ptr, ptr, ptr, ptr, ptr, i32, i32, i32, i32, i32, i32, i32, i32 }

; Function Attrs: mustprogress nounwind uwtable
define linkonce_odr hidden void @_ZNSt13__atomic_baseIjEC2Ej(ptr noundef nonnull align 4 dereferenceable(4) %this, i32 noundef %__i) unnamed_addr #4 comdat align 2 {
entry:
  %this.addr = alloca ptr, align 8
  %__i.addr = alloca i32, align 4
  store ptr %this, ptr %this.addr, align 8
  store i32 %__i, ptr %__i.addr, align 4
  %this1 = load ptr, ptr %this.addr, align 8
  %_M_i = getelementptr inbounds %"struct.std::__atomic_base.2", ptr %this1, i32 0, i32 0
  %0 = load i32, ptr %__i.addr, align 4
  store i32 %0, ptr %_M_i, align 4
  ret void
}

; Function Attrs: mustprogress nounwind uwtable
define linkonce_odr hidden void @_ZNSt6atomicIjEC2Ej(ptr noundef nonnull align 4 dereferenceable(4) %this, i32 noundef %__i) unnamed_addr #4 comdat align 2 {
entry:
  %this.addr = alloca ptr, align 8
  %__i.addr = alloca i32, align 4
  store ptr %this, ptr %this.addr, align 8
  store i32 %__i, ptr %__i.addr, align 4
  %this1 = load ptr, ptr %this.addr, align 8
  %0 = load i32, ptr %__i.addr, align 4
  call void @_ZNSt13__atomic_baseIjEC2Ej(ptr noundef nonnull align 4 dereferenceable(4) %this1, i32 noundef %0) #3
  ret void
}

; Function Attrs: mustprogress nounwind uwtable
define linkonce_odr hidden noundef i32 @_ZNK6google8protobuf10Descriptor11field_countEv(ptr noundef nonnull align 8 dereferenceable(152) %this) #4 comdat align 2 {
entry:
  %this.addr = alloca ptr, align 8
  store ptr %this, ptr %this.addr, align 8
  %this1 = load ptr, ptr %this.addr, align 8
  %field_count_ = getelementptr inbounds %"class.google::protobuf::Descriptor", ptr %this1, i32 0, i32 3
  %0 = load i32, ptr %field_count_, align 4
  ret i32 %0
}

; Function Attrs: mustprogress nounwind uwtable
define linkonce_odr hidden void @_ZN4absl12lts_202308029once_flagC2Ev(ptr noundef nonnull align 4 dereferenceable(4) %this) unnamed_addr #4 comdat align 2 {
entry:
  %this.addr = alloca ptr, align 8
  store ptr %this, ptr %this.addr, align 8
  %this1 = load ptr, ptr %this.addr, align 8
  %control_ = getelementptr inbounds %"class.absl::lts_20230802::once_flag", ptr %this1, i32 0, i32 0
  call void @_ZNSt6atomicIjEC2Ej(ptr noundef nonnull align 4 dereferenceable(4) %control_, i32 noundef 0) #3
  ret void
}

; Function Attrs: mustprogress uwtable
define void @_ZN6google8protobuf10ReflectionC2EPKNS0_10DescriptorERKNS0_8internal16ReflectionSchemaEPKNS0_14DescriptorPoolEPNS0_14MessageFactoryE(ptr noundef nonnull align 8 dereferenceable(112) %this, ptr noundef %descriptor, ptr noundef nonnull align 8 dereferenceable(72) %schema, ptr noundef %pool, ptr noundef %factory) unnamed_addr #5 align 2 {
entry:
  %this.addr = alloca ptr, align 8
  %descriptor.addr = alloca ptr, align 8
  %schema.addr = alloca ptr, align 8
  %pool.addr = alloca ptr, align 8
  %factory.addr = alloca ptr, align 8
  store ptr %this, ptr %this.addr, align 8
  store ptr %descriptor, ptr %descriptor.addr, align 8
  store ptr %schema, ptr %schema.addr, align 8
  store ptr %pool, ptr %pool.addr, align 8
  store ptr %factory, ptr %factory.addr, align 8
  %this1 = load ptr, ptr %this.addr, align 8
  %descriptor_ = getelementptr inbounds %"class.google::protobuf::Reflection", ptr %this1, i32 0, i32 0
  %0 = load ptr, ptr %descriptor.addr, align 8
  store ptr %0, ptr %descriptor_, align 8
  %schema_ = getelementptr inbounds %"class.google::protobuf::Reflection", ptr %this1, i32 0, i32 1
  %1 = load ptr, ptr %schema.addr, align 8
  call void @llvm.memcpy.p0.p0.i64(ptr align 8 %schema_, ptr align 8 %1, i64 72, i1 false)
  %descriptor_pool_ = getelementptr inbounds %"class.google::protobuf::Reflection", ptr %this1, i32 0, i32 2
  %2 = load ptr, ptr %pool.addr, align 8
  %cmp = icmp eq ptr %2, null
  br i1 %cmp, label %cond.true, label %cond.false

cond.true:                                        ; preds = %entry
  %call = call noundef ptr @_ZN6google8protobuf14DescriptorPool23internal_generated_poolEv()
  br label %cond.end

cond.false:                                       ; preds = %entry
  %3 = load ptr, ptr %pool.addr, align 8
  br label %cond.end

cond.end:                                         ; preds = %cond.false, %cond.true
  %cond = phi ptr [ %call, %cond.true ], [ %3, %cond.false ]
  store ptr %cond, ptr %descriptor_pool_, align 8
  %message_factory_ = getelementptr inbounds %"class.google::protobuf::Reflection", ptr %this1, i32 0, i32 3
  %4 = load ptr, ptr %factory.addr, align 8
  store ptr %4, ptr %message_factory_, align 8
  %last_non_weak_field_index_ = getelementptr inbounds %"class.google::protobuf::Reflection", ptr %this1, i32 0, i32 4
  store i32 -1, ptr %last_non_weak_field_index_, align 8
  %tcparse_table_once_ = getelementptr inbounds %"class.google::protobuf::Reflection", ptr %this1, i32 0, i32 5
  call void @_ZN4absl12lts_202308029once_flagC2Ev(ptr noundef nonnull align 4 dereferenceable(4) %tcparse_table_once_)
  %tcparse_table_ = getelementptr inbounds %"class.google::protobuf::Reflection", ptr %this1, i32 0, i32 6
  store ptr null, ptr %tcparse_table_, align 8
  %descriptor_2 = getelementptr inbounds %"class.google::protobuf::Reflection", ptr %this1, i32 0, i32 0
  %5 = load ptr, ptr %descriptor_2, align 8
  %call3 = call noundef i32 @_ZNK6google8protobuf10Descriptor11field_countEv(ptr noundef nonnull align 8 dereferenceable(152) %5)
  %sub = sub nsw i32 %call3, 1
  %last_non_weak_field_index_4 = getelementptr inbounds %"class.google::protobuf::Reflection", ptr %this1, i32 0, i32 4
  store i32 %sub, ptr %last_non_weak_field_index_4, align 8
  ret void
}