; Function Attrs: mustprogress uwtable
define void @_ZN6google8protobuf10ReflectionC2EPKNS0_10DescriptorERKNS0_8internal16ReflectionSchemaEPKNS0_14DescriptorPoolEPNS0_14MessageFactoryE(ptr nocapture noundef nonnull align 8 dereferenceable(112) %this, ptr noundef %descriptor, ptr nocapture noundef nonnull readonly align 8 dereferenceable(72) %schema, ptr noundef %pool, ptr noundef %factory) unnamed_addr #4 align 2 {
entry:
  store ptr %descriptor, ptr %this, align 8
  %schema_ = getelementptr inbounds i8, ptr %this, i64 8
  tail call void @llvm.memcpy.p0.p0.i64(ptr noundef nonnull align 8 dereferenceable(72) %schema_, ptr noundef nonnull align 8 dereferenceable(72) %schema, i64 72, i1 false)
  %cmp = icmp eq ptr %pool, null
  br i1 %cmp, label %cond.true, label %cond.end

cond.true:                                        ; preds = %entry
  %call = tail call noundef ptr @_ZN6google8protobuf14DescriptorPool23internal_generated_poolEv()
  %.pre = load ptr, ptr %this, align 8
  br label %cond.end

cond.end:                                         ; preds = %entry, %cond.true
  %0 = phi ptr [ %.pre, %cond.true ], [ %descriptor, %entry ]
  %cond = phi ptr [ %call, %cond.true ], [ %pool, %entry ]
  %descriptor_pool_ = getelementptr inbounds i8, ptr %this, i64 80
  store ptr %cond, ptr %descriptor_pool_, align 8
  %message_factory_ = getelementptr inbounds i8, ptr %this, i64 88
  store ptr %factory, ptr %message_factory_, align 8
  %last_non_weak_field_index_ = getelementptr inbounds i8, ptr %this, i64 96
  store i32 -1, ptr %last_non_weak_field_index_, align 8
  %tcparse_table_once_ = getelementptr inbounds i8, ptr %this, i64 100
  store i32 0, ptr %tcparse_table_once_, align 4
  %tcparse_table_ = getelementptr inbounds i8, ptr %this, i64 104
  store ptr null, ptr %tcparse_table_, align 8
  %field_count_.i = getelementptr inbounds i8, ptr %0, i64 4
  %1 = load i32, ptr %field_count_.i, align 4
  %sub = add nsw i32 %1, -1
  store i32 %sub, ptr %last_non_weak_field_index_, align 8
  ret void
}